target datalayout = "e-m:e-p270:32:32-p271:32:32-p272:64:64-i64:64-i128:128-f80:128-n8:16:32:64-S128"
target triple = "x86_64-pc-linux-gnu"

%struct.FFBoundingBox = type { i32, i32, i32, i32 }

; Function Attrs: nounwind uwtable
define internal i32 @blur_pixel(ptr noundef %0, ptr noundef %1, i32 noundef %2, ptr noundef %3, i32 noundef %4, i32 noundef %5, i32 noundef %6, i32 noundef %7, i32 noundef %8) #1 {
  %10 = alloca ptr, align 8
  %11 = alloca ptr, align 8
  %12 = alloca i32, align 4
  %13 = alloca ptr, align 8
  %14 = alloca i32, align 4
  %15 = alloca i32, align 4
  %16 = alloca i32, align 4
  %17 = alloca i32, align 4
  %18 = alloca i32, align 4
  %19 = alloca i32, align 4
  %20 = alloca i32, align 4
  %21 = alloca i32, align 4
  %22 = alloca i32, align 4
  %23 = alloca i32, align 4
  %24 = alloca i32, align 4
  %25 = alloca i32, align 4
  %26 = alloca i32, align 4
  %27 = alloca i32, align 4
  %28 = alloca ptr, align 8
  %29 = alloca ptr, align 8
  store ptr %0, ptr %10, align 8, !tbaa !35
  store ptr %1, ptr %11, align 8, !tbaa !70
  store i32 %2, ptr %12, align 4, !tbaa !24
  store ptr %3, ptr %13, align 8, !tbaa !70
  store i32 %4, ptr %14, align 4, !tbaa !24
  store i32 %5, ptr %15, align 4, !tbaa !24
  store i32 %6, ptr %16, align 4, !tbaa !24
  store i32 %7, ptr %17, align 4, !tbaa !24
  store i32 %8, ptr %18, align 4, !tbaa !24
  call void @llvm.lifetime.start.p0(i64 4, ptr %19) #4
  call void @llvm.lifetime.start.p0(i64 4, ptr %20) #4
  call void @llvm.lifetime.start.p0(i64 4, ptr %21) #4
  call void @llvm.lifetime.start.p0(i64 4, ptr %22) #4
  call void @llvm.lifetime.start.p0(i64 4, ptr %23) #4
  call void @llvm.lifetime.start.p0(i64 4, ptr %24) #4
  call void @llvm.lifetime.start.p0(i64 4, ptr %25) #4
  call void @llvm.lifetime.start.p0(i64 4, ptr %26) #4
  store i32 0, ptr %26, align 4, !tbaa !24
  call void @llvm.lifetime.start.p0(i64 4, ptr %27) #4
  store i32 0, ptr %27, align 4, !tbaa !24
  call void @llvm.lifetime.start.p0(i64 8, ptr %28) #4
  call void @llvm.lifetime.start.p0(i64 8, ptr %29) #4
  %30 = load ptr, ptr %11, align 8, !tbaa !70
  %31 = load i32, ptr %18, align 4, !tbaa !24
  %32 = load i32, ptr %12, align 4, !tbaa !24
  %33 = mul nsw i32 %31, %32
  %34 = load i32, ptr %17, align 4, !tbaa !24
  %35 = add nsw i32 %33, %34
  %36 = sext i32 %35 to i64
  %37 = getelementptr inbounds i8, ptr %30, i64 %36
  %38 = load i8, ptr %37, align 1, !tbaa !77
  %39 = zext i8 %38 to i32
  store i32 %39, ptr %19, align 4, !tbaa !24
  %40 = load i32, ptr %17, align 4, !tbaa !24
  %41 = load i32, ptr %19, align 4, !tbaa !24
  %42 = sub nsw i32 %40, %41
  %43 = icmp sgt i32 0, %42
  br i1 %43, label %44, label %45

44:                                               ; preds = %9
  br label %49

45:                                               ; preds = %9
  %46 = load i32, ptr %17, align 4, !tbaa !24
  %47 = load i32, ptr %19, align 4, !tbaa !24
  %48 = sub nsw i32 %46, %47
  br label %49

49:                                               ; preds = %45, %44
  %50 = phi i32 [ 0, %44 ], [ %48, %45 ]
  store i32 %50, ptr %20, align 4, !tbaa !24
  %51 = load i32, ptr %18, align 4, !tbaa !24
  %52 = load i32, ptr %19, align 4, !tbaa !24
  %53 = sub nsw i32 %51, %52
  %54 = icmp sgt i32 0, %53
  br i1 %54, label %55, label %56

55:                                               ; preds = %49
  br label %60

56:                                               ; preds = %49
  %57 = load i32, ptr %18, align 4, !tbaa !24
  %58 = load i32, ptr %19, align 4, !tbaa !24
  %59 = sub nsw i32 %57, %58
  br label %60

60:                                               ; preds = %56, %55
  %61 = phi i32 [ 0, %55 ], [ %59, %56 ]
  store i32 %61, ptr %21, align 4, !tbaa !24
  %62 = load i32, ptr %15, align 4, !tbaa !24
  %63 = sub nsw i32 %62, 1
  %64 = load i32, ptr %17, align 4, !tbaa !24
  %65 = load i32, ptr %19, align 4, !tbaa !24
  %66 = add nsw i32 %64, %65
  %67 = icmp sgt i32 %63, %66
  br i1 %67, label %68, label %72

68:                                               ; preds = %60
  %69 = load i32, ptr %17, align 4, !tbaa !24
  %70 = load i32, ptr %19, align 4, !tbaa !24
  %71 = add nsw i32 %69, %70
  br label %75

72:                                               ; preds = %60
  %73 = load i32, ptr %15, align 4, !tbaa !24
  %74 = sub nsw i32 %73, 1
  br label %75

75:                                               ; preds = %72, %68
  %76 = phi i32 [ %71, %68 ], [ %74, %72 ]
  store i32 %76, ptr %22, align 4, !tbaa !24
  %77 = load i32, ptr %16, align 4, !tbaa !24
  %78 = sub nsw i32 %77, 1
  %79 = load i32, ptr %18, align 4, !tbaa !24
  %80 = load i32, ptr %19, align 4, !tbaa !24
  %81 = add nsw i32 %79, %80
  %82 = icmp sgt i32 %78, %81
  br i1 %82, label %83, label %87

83:                                               ; preds = %75
  %84 = load i32, ptr %18, align 4, !tbaa !24
  %85 = load i32, ptr %19, align 4, !tbaa !24
  %86 = add nsw i32 %84, %85
  br label %90

87:                                               ; preds = %75
  %88 = load i32, ptr %16, align 4, !tbaa !24
  %89 = sub nsw i32 %88, 1
  br label %90

90:                                               ; preds = %87, %83
  %91 = phi i32 [ %86, %83 ], [ %89, %87 ]
  store i32 %91, ptr %23, align 4, !tbaa !24
  %92 = load ptr, ptr %13, align 8, !tbaa !70
  %93 = load i32, ptr %14, align 4, !tbaa !24
  %94 = load i32, ptr %21, align 4, !tbaa !24
  %95 = mul nsw i32 %93, %94
  %96 = sext i32 %95 to i64
  %97 = getelementptr inbounds i8, ptr %92, i64 %96
  %98 = load i32, ptr %20, align 4, !tbaa !24
  %99 = sext i32 %98 to i64
  %100 = getelementptr inbounds i8, ptr %97, i64 %99
  store ptr %100, ptr %28, align 8, !tbaa !70
  %101 = load ptr, ptr %11, align 8, !tbaa !70
  %102 = load i32, ptr %12, align 4, !tbaa !24
  %103 = load i32, ptr %21, align 4, !tbaa !24
  %104 = mul nsw i32 %102, %103
  %105 = sext i32 %104 to i64
  %106 = getelementptr inbounds i8, ptr %101, i64 %105
  %107 = load i32, ptr %20, align 4, !tbaa !24
  %108 = sext i32 %107 to i64
  %109 = getelementptr inbounds i8, ptr %106, i64 %108
  store ptr %109, ptr %29, align 8, !tbaa !70
  %110 = load i32, ptr %21, align 4, !tbaa !24
  store i32 %110, ptr %25, align 4, !tbaa !24
  br label %111

111:                                              ; preds = %179, %90
  %112 = load i32, ptr %25, align 4, !tbaa !24
  %113 = load i32, ptr %23, align 4, !tbaa !24
  %114 = icmp sle i32 %112, %113
  br i1 %114, label %115, label %182

115:                                              ; preds = %111
  %116 = load i32, ptr %20, align 4, !tbaa !24
  store i32 %116, ptr %24, align 4, !tbaa !24
  br label %117

117:                                              ; preds = %157, %115
  %118 = load i32, ptr %24, align 4, !tbaa !24
  %119 = load i32, ptr %22, align 4, !tbaa !24
  %120 = icmp sle i32 %118, %119
  br i1 %120, label %121, label %160

121:                                              ; preds = %117
  %122 = load ptr, ptr %29, align 8, !tbaa !70
  %123 = load i8, ptr %122, align 1, !tbaa !77
  %124 = icmp ne i8 %123, 0
  br i1 %124, label %152, label %125

125:                                              ; preds = %121
  %126 = load ptr, ptr %10, align 8, !tbaa !35
  %127 = load i32, ptr %19, align 4, !tbaa !24
  %128 = sext i32 %127 to i64
  %129 = getelementptr inbounds ptr, ptr %126, i64 %128
  %130 = load ptr, ptr %129, align 8, !tbaa !36
  %131 = load i32, ptr %24, align 4, !tbaa !24
  %132 = load i32, ptr %20, align 4, !tbaa !24
  %133 = sub nsw i32 %131, %132
  %134 = sext i32 %133 to i64
  %135 = getelementptr inbounds ptr, ptr %130, i64 %134
  %136 = load ptr, ptr %135, align 8, !tbaa !38
  %137 = load i32, ptr %25, align 4, !tbaa !24
  %138 = load i32, ptr %21, align 4, !tbaa !24
  %139 = sub nsw i32 %137, %138
  %140 = sext i32 %139 to i64
  %141 = getelementptr inbounds i32, ptr %136, i64 %140
  %142 = load i32, ptr %141, align 4, !tbaa !24
  %143 = icmp ne i32 %142, 0
  br i1 %143, label %144, label %152

144:                                              ; preds = %125
  %145 = load ptr, ptr %28, align 8, !tbaa !70
  %146 = load i8, ptr %145, align 1, !tbaa !77
  %147 = zext i8 %146 to i32
  %148 = load i32, ptr %26, align 4, !tbaa !24
  %149 = add i32 %148, %147
  store i32 %149, ptr %26, align 4, !tbaa !24
  %150 = load i32, ptr %27, align 4, !tbaa !24
  %151 = add i32 %150, 1
  store i32 %151, ptr %27, align 4, !tbaa !24
  br label %152

152:                                              ; preds = %144, %125, %121
  %153 = load ptr, ptr %28, align 8, !tbaa !70
  %154 = getelementptr inbounds nuw i8, ptr %153, i32 1
  store ptr %154, ptr %28, align 8, !tbaa !70
  %155 = load ptr, ptr %29, align 8, !tbaa !70
  %156 = getelementptr inbounds nuw i8, ptr %155, i32 1
  store ptr %156, ptr %29, align 8, !tbaa !70
  br label %157

157:                                              ; preds = %152
  %158 = load i32, ptr %24, align 4, !tbaa !24
  %159 = add nsw i32 %158, 1
  store i32 %159, ptr %24, align 4, !tbaa !24
  br label %117, !llvm.loop !80

160:                                              ; preds = %117
  %161 = load i32, ptr %14, align 4, !tbaa !24
  %162 = load i32, ptr %22, align 4, !tbaa !24
  %163 = add nsw i32 %162, 1
  %164 = load i32, ptr %20, align 4, !tbaa !24
  %165 = sub nsw i32 %163, %164
  %166 = sub nsw i32 %161, %165
  %167 = load ptr, ptr %28, align 8, !tbaa !70
  %168 = sext i32 %166 to i64
  %169 = getelementptr inbounds i8, ptr %167, i64 %168
  store ptr %169, ptr %28, align 8, !tbaa !70
  %170 = load i32, ptr %12, align 4, !tbaa !24
  %171 = load i32, ptr %22, align 4, !tbaa !24
  %172 = add nsw i32 %171, 1
  %173 = load i32, ptr %20, align 4, !tbaa !24
  %174 = sub nsw i32 %172, %173
  %175 = sub nsw i32 %170, %174
  %176 = load ptr, ptr %29, align 8, !tbaa !70
  %177 = sext i32 %175 to i64
  %178 = getelementptr inbounds i8, ptr %176, i64 %177
  store ptr %178, ptr %29, align 8, !tbaa !70
  br label %179

179:                                              ; preds = %160
  %180 = load i32, ptr %25, align 4, !tbaa !24
  %181 = add nsw i32 %180, 1
  store i32 %181, ptr %25, align 4, !tbaa !24
  br label %111, !llvm.loop !81

182:                                              ; preds = %111
  %183 = load i32, ptr %27, align 4, !tbaa !24
  %184 = icmp eq i32 %183, 0
  br i1 %184, label %185, label %186

185:                                              ; preds = %182
  br label %193

186:                                              ; preds = %182
  %187 = load i32, ptr %26, align 4, !tbaa !24
  %188 = load i32, ptr %27, align 4, !tbaa !24
  %189 = udiv i32 %188, 2
  %190 = add i32 %187, %189
  %191 = load i32, ptr %27, align 4, !tbaa !24
  %192 = udiv i32 %190, %191
  br label %193

193:                                              ; preds = %186, %185
  %194 = phi i32 [ 255, %185 ], [ %192, %186 ]
  call void @llvm.lifetime.end.p0(i64 8, ptr %29) #4
  call void @llvm.lifetime.end.p0(i64 8, ptr %28) #4
  call void @llvm.lifetime.end.p0(i64 4, ptr %27) #4
  call void @llvm.lifetime.end.p0(i64 4, ptr %26) #4
  call void @llvm.lifetime.end.p0(i64 4, ptr %25) #4
  call void @llvm.lifetime.end.p0(i64 4, ptr %24) #4
  call void @llvm.lifetime.end.p0(i64 4, ptr %23) #4
  call void @llvm.lifetime.end.p0(i64 4, ptr %22) #4
  call void @llvm.lifetime.end.p0(i64 4, ptr %21) #4
  call void @llvm.lifetime.end.p0(i64 4, ptr %20) #4
  call void @llvm.lifetime.end.p0(i64 4, ptr %19) #4
  ret i32 %194
}

; Function Attrs: nounwind uwtable
define internal void @blur_image(ptr noundef %0, ptr noundef %1, i32 noundef %2, ptr noundef %3, i32 noundef %4, ptr noundef %5, i32 noundef %6, i32 noundef %7, i32 noundef %8, i32 noundef %9, ptr noundef %10) #1 {
  %12 = alloca ptr, align 8
  %13 = alloca ptr, align 8
  %14 = alloca i32, align 4
  %15 = alloca ptr, align 8
  %16 = alloca i32, align 4
  %17 = alloca ptr, align 8
  %18 = alloca i32, align 4
  %19 = alloca i32, align 4
  %20 = alloca i32, align 4
  %21 = alloca i32, align 4
  %22 = alloca ptr, align 8
  %23 = alloca i32, align 4
  %24 = alloca i32, align 4
  %25 = alloca ptr, align 8
  %26 = alloca ptr, align 8
  store ptr %0, ptr %12, align 8, !tbaa !35
  store ptr %1, ptr %13, align 8, !tbaa !70
  store i32 %2, ptr %14, align 4, !tbaa !24
  store ptr %3, ptr %15, align 8, !tbaa !70
  store i32 %4, ptr %16, align 4, !tbaa !24
  store ptr %5, ptr %17, align 8, !tbaa !70
  store i32 %6, ptr %18, align 4, !tbaa !24
  store i32 %7, ptr %19, align 4, !tbaa !24
  store i32 %8, ptr %20, align 4, !tbaa !24
  store i32 %9, ptr %21, align 4, !tbaa !24
  store ptr %10, ptr %22, align 8, !tbaa !71
  call void @llvm.lifetime.start.p0(i64 4, ptr %23) #4
  call void @llvm.lifetime.start.p0(i64 4, ptr %24) #4
  call void @llvm.lifetime.start.p0(i64 8, ptr %25) #4
  call void @llvm.lifetime.start.p0(i64 8, ptr %26) #4
  %27 = load i32, ptr %21, align 4, !tbaa !24
  %28 = icmp ne i32 %27, 0
  br i1 %28, label %36, label %29

29:                                               ; preds = %11
  %30 = load ptr, ptr %15, align 8, !tbaa !70
  %31 = load i32, ptr %16, align 4, !tbaa !24
  %32 = load ptr, ptr %13, align 8, !tbaa !70
  %33 = load i32, ptr %14, align 4, !tbaa !24
  %34 = load i32, ptr %19, align 4, !tbaa !24
  %35 = load i32, ptr %20, align 4, !tbaa !24
  call void @av_image_copy_plane(ptr noundef %30, i32 noundef %31, ptr noundef %32, i32 noundef %33, i32 noundef %34, i32 noundef %35)
  br label %36

36:                                               ; preds = %29, %11
  %37 = load ptr, ptr %22, align 8, !tbaa !71
  %38 = getelementptr inbounds nuw %struct.FFBoundingBox, ptr %37, i32 0, i32 2
  %39 = load i32, ptr %38, align 4, !tbaa !73
  store i32 %39, ptr %24, align 4, !tbaa !24
  br label %40

40:                                               ; preds = %114, %36
  %41 = load i32, ptr %24, align 4, !tbaa !24
  %42 = load ptr, ptr %22, align 8, !tbaa !71
  %43 = getelementptr inbounds nuw %struct.FFBoundingBox, ptr %42, i32 0, i32 3
  %44 = load i32, ptr %43, align 4, !tbaa !74
  %45 = icmp sle i32 %41, %44
  br i1 %45, label %46, label %117

46:                                               ; preds = %40
  %47 = load ptr, ptr %13, align 8, !tbaa !70
  %48 = load i32, ptr %14, align 4, !tbaa !24
  %49 = load i32, ptr %24, align 4, !tbaa !24
  %50 = mul nsw i32 %48, %49
  %51 = sext i32 %50 to i64
  %52 = getelementptr inbounds i8, ptr %47, i64 %51
  store ptr %52, ptr %26, align 8, !tbaa !70
  %53 = load ptr, ptr %15, align 8, !tbaa !70
  %54 = load i32, ptr %16, align 4, !tbaa !24
  %55 = load i32, ptr %24, align 4, !tbaa !24
  %56 = mul nsw i32 %54, %55
  %57 = sext i32 %56 to i64
  %58 = getelementptr inbounds i8, ptr %53, i64 %57
  store ptr %58, ptr %25, align 8, !tbaa !70
  %59 = load ptr, ptr %22, align 8, !tbaa !71
  %60 = getelementptr inbounds nuw %struct.FFBoundingBox, ptr %59, i32 0, i32 0
  %61 = load i32, ptr %60, align 4, !tbaa !75
  store i32 %61, ptr %23, align 4, !tbaa !24
  br label %62

62:                                               ; preds = %110, %46
  %63 = load i32, ptr %23, align 4, !tbaa !24
  %64 = load ptr, ptr %22, align 8, !tbaa !71
  %65 = getelementptr inbounds nuw %struct.FFBoundingBox, ptr %64, i32 0, i32 1
  %66 = load i32, ptr %65, align 4, !tbaa !76
  %67 = icmp sle i32 %63, %66
  br i1 %67, label %68, label %113

68:                                               ; preds = %62
  %69 = load ptr, ptr %17, align 8, !tbaa !70
  %70 = load i32, ptr %24, align 4, !tbaa !24
  %71 = load i32, ptr %18, align 4, !tbaa !24
  %72 = mul nsw i32 %70, %71
  %73 = load i32, ptr %23, align 4, !tbaa !24
  %74 = add nsw i32 %72, %73
  %75 = sext i32 %74 to i64
  %76 = getelementptr inbounds i8, ptr %69, i64 %75
  %77 = load i8, ptr %76, align 1, !tbaa !77
  %78 = icmp ne i8 %77, 0
  br i1 %78, label %79, label %95

79:                                               ; preds = %68
  %80 = load ptr, ptr %12, align 8, !tbaa !35
  %81 = load ptr, ptr %17, align 8, !tbaa !70
  %82 = load i32, ptr %18, align 4, !tbaa !24
  %83 = load ptr, ptr %15, align 8, !tbaa !70
  %84 = load i32, ptr %16, align 4, !tbaa !24
  %85 = load i32, ptr %19, align 4, !tbaa !24
  %86 = load i32, ptr %20, align 4, !tbaa !24
  %87 = load i32, ptr %23, align 4, !tbaa !24
  %88 = load i32, ptr %24, align 4, !tbaa !24
  %89 = call i32 @blur_pixel(ptr noundef %80, ptr noundef %81, i32 noundef %82, ptr noundef %83, i32 noundef %84, i32 noundef %85, i32 noundef %86, i32 noundef %87, i32 noundef %88)
  %90 = trunc i32 %89 to i8
  %91 = load ptr, ptr %25, align 8, !tbaa !70
  %92 = load i32, ptr %23, align 4, !tbaa !24
  %93 = sext i32 %92 to i64
  %94 = getelementptr inbounds i8, ptr %91, i64 %93
  store i8 %90, ptr %94, align 1, !tbaa !77
  br label %109

95:                                               ; preds = %68
  %96 = load i32, ptr %21, align 4, !tbaa !24
  %97 = icmp ne i32 %96, 0
  br i1 %97, label %108, label %98

98:                                               ; preds = %95
  %99 = load ptr, ptr %26, align 8, !tbaa !70
  %100 = load i32, ptr %23, align 4, !tbaa !24
  %101 = sext i32 %100 to i64
  %102 = getelementptr inbounds i8, ptr %99, i64 %101
  %103 = load i8, ptr %102, align 1, !tbaa !77
  %104 = load ptr, ptr %25, align 8, !tbaa !70
  %105 = load i32, ptr %23, align 4, !tbaa !24
  %106 = sext i32 %105 to i64
  %107 = getelementptr inbounds i8, ptr %104, i64 %106
  store i8 %103, ptr %107, align 1, !tbaa !77
  br label %108

108:                                              ; preds = %98, %95
  br label %109

109:                                              ; preds = %108, %79
  br label %110

110:                                              ; preds = %109
  %111 = load i32, ptr %23, align 4, !tbaa !24
  %112 = add nsw i32 %111, 1
  store i32 %112, ptr %23, align 4, !tbaa !24
  br label %62, !llvm.loop !78

113:                                              ; preds = %62
  br label %114

114:                                              ; preds = %113
  %115 = load i32, ptr %24, align 4, !tbaa !24
  %116 = add nsw i32 %115, 1
  store i32 %116, ptr %24, align 4, !tbaa !24
  br label %40, !llvm.loop !79

117:                                              ; preds = %40
  call void @llvm.lifetime.end.p0(i64 8, ptr %26) #4
  call void @llvm.lifetime.end.p0(i64 8, ptr %25) #4
  call void @llvm.lifetime.end.p0(i64 4, ptr %24) #4
  call void @llvm.lifetime.end.p0(i64 4, ptr %23) #4
  ret void
}