; Function Attrs: nounwind uwtable
define internal fastcc void @blur_image(ptr noundef readonly captures(none) %0, ptr noundef %1, i32 noundef %2, ptr noundef %3, i32 noundef %4, ptr noundef readonly captures(none) %5, i32 noundef %6, i32 noundef %7, i32 noundef %8, i32 noundef range(i32 0, 2) %9, ptr noundef readonly captures(none) %10) unnamed_addr #1 {
  %.not = icmp eq i32 %9, 0
  br i1 %.not, label %12, label %13

12:                                               ; preds = %11
  tail call void @av_image_copy_plane(ptr noundef %3, i32 noundef %4, ptr noundef %1, i32 noundef %2, i32 noundef %7, i32 noundef %8) #6
  br label %13

13:                                               ; preds = %12, %11
  %14 = getelementptr inbounds nuw i8, ptr %10, i64 8
  %15 = load i32, ptr %14, align 4, !tbaa !70
  %16 = getelementptr inbounds nuw i8, ptr %10, i64 12
  %17 = load i32, ptr %16, align 4, !tbaa !71
  %.not4146 = icmp sgt i32 %15, %17
  br i1 %.not4146, label %._crit_edge50, label %.lr.ph49

.lr.ph49:                                         ; preds = %13
  %18 = getelementptr inbounds nuw i8, ptr %10, i64 4
  %19 = add i32 %7, -1
  %20 = add nsw i32 %8, -1
  %21 = load i32, ptr %10, align 4, !tbaa !72
  %22 = load i32, ptr %18, align 4, !tbaa !73
  %23 = icmp sgt i32 %21, %22
  br i1 %23, label %._crit_edge50, label %.lr.ph49.split.preheader

.lr.ph49.split.preheader:                         ; preds = %.lr.ph49
  %24 = sext i32 %15 to i64
  %25 = sext i32 %2 to i64
  %26 = sext i32 %4 to i64
  %27 = sext i32 %6 to i64
  br label %.lr.ph49.split

.lr.ph49.split:                                   ; preds = %.lr.ph49.split.preheader, %._crit_edge
  %28 = phi i32 [ %17, %.lr.ph49.split.preheader ], [ %106, %._crit_edge ]
  %29 = phi i32 [ %22, %.lr.ph49.split.preheader ], [ %107, %._crit_edge ]
  %indvars.iv53 = phi i64 [ %24, %.lr.ph49.split.preheader ], [ %indvars.iv.next54, %._crit_edge ]
  %30 = mul nsw i64 %indvars.iv53, %25
  %31 = getelementptr inbounds i8, ptr %1, i64 %30
  %32 = mul nsw i64 %indvars.iv53, %26
  %33 = getelementptr inbounds i8, ptr %3, i64 %32
  %34 = load i32, ptr %10, align 4, !tbaa !72
  %.not4244 = icmp sgt i32 %34, %29
  br i1 %.not4244, label %._crit_edge, label %.lr.ph

.lr.ph:                                           ; preds = %.lr.ph49.split
  %35 = mul nsw i64 %indvars.iv53, %27
  %36 = sext i32 %34 to i64
  %invariant.gep = getelementptr i8, ptr %5, i64 %35
  %37 = trunc nsw i64 %indvars.iv53 to i32
  br label %38

38:                                               ; preds = %.lr.ph, %103
  %indvars.iv = phi i64 [ %36, %.lr.ph ], [ %indvars.iv.next, %103 ]
  %gep = getelementptr i8, ptr %invariant.gep, i64 %indvars.iv
  %39 = load i8, ptr %gep, align 1, !tbaa !31
  %.not43 = icmp eq i8 %39, 0
  br i1 %.not43, label %98, label %40

40:                                               ; preds = %38
  %41 = zext i8 %39 to i32
  %42 = trunc nsw i64 %indvars.iv to i32
  %43 = sub i32 %42, %41
  %44 = tail call i32 @llvm.smax.i32(i32 %43, i32 0)
  %45 = sub nsw i32 %37, %41
  %46 = tail call i32 @llvm.smax.i32(i32 %45, i32 0)
  %47 = add i32 %42, %41
  %..i = tail call i32 @llvm.smin.i32(i32 %19, i32 %47)
  %48 = add nsw i32 %37, %41
  %49 = tail call i32 @llvm.smin.i32(i32 %20, i32 %48)
  %.not89.i = icmp sgt i32 %46, %49
  br i1 %.not89.i, label %.sink.split, label %.preheader.lr.ph.i

.preheader.lr.ph.i:                               ; preds = %40
  %50 = zext nneg i32 %44 to i64
  %.not7780.i = icmp sgt i32 %44, %..i
  %51 = zext i8 %39 to i64
  %52 = getelementptr inbounds nuw ptr, ptr %0, i64 %51
  %53 = add i32 %..i, 1
  %54 = sub i32 %53, %44
  %55 = sub nsw i32 %4, %54
  %56 = sext i32 %55 to i64
  %57 = sub nsw i32 %6, %54
  %58 = sext i32 %57 to i64
  br i1 %.not7780.i, label %.sink.split, label %.preheader.preheader.i

.preheader.preheader.i:                           ; preds = %.preheader.lr.ph.i
  %59 = mul nsw i32 %46, %4
  %60 = sext i32 %59 to i64
  %61 = getelementptr inbounds i8, ptr %3, i64 %60
  %62 = getelementptr inbounds nuw i8, ptr %61, i64 %50
  %63 = mul nsw i32 %46, %6
  %64 = sext i32 %63 to i64
  %65 = getelementptr inbounds i8, ptr %5, i64 %64
  %66 = getelementptr inbounds nuw i8, ptr %65, i64 %50
  %67 = sub nsw i32 %..i, %44
  %68 = zext i32 %67 to i64
  %69 = add nuw nsw i64 %68, 1
  %70 = zext nneg i32 %46 to i64
  %71 = zext nneg i32 %49 to i64
  %wide.trip.count.i = zext i32 %53 to i64
  br label %.preheader.i

.preheader.i:                                     ; preds = %._crit_edge.i, %.preheader.preheader.i
  %indvars.iv103.i = phi i64 [ %70, %.preheader.preheader.i ], [ %indvars.iv.next104.i, %._crit_edge.i ]
  %.094.i = phi ptr [ %66, %.preheader.preheader.i ], [ %91, %._crit_edge.i ]
  %.06393.i = phi ptr [ %62, %.preheader.preheader.i ], [ %90, %._crit_edge.i ]
  %.06592.i = phi i32 [ 0, %.preheader.preheader.i ], [ %.2.i, %._crit_edge.i ]
  %.06791.i = phi i32 [ 0, %.preheader.preheader.i ], [ %.269.i, %._crit_edge.i ]
  %72 = sub nuw nsw i64 %indvars.iv103.i, %70
  br label %73

73:                                               ; preds = %87, %.preheader.i
  %indvars.iv.i = phi i64 [ %50, %.preheader.i ], [ %indvars.iv.next.i, %87 ]
  %.185.i = phi ptr [ %.094.i, %.preheader.i ], [ %89, %87 ]
  %.16484.i = phi ptr [ %.06393.i, %.preheader.i ], [ %88, %87 ]
  %.16683.i = phi i32 [ %.06592.i, %.preheader.i ], [ %.2.i, %87 ]
  %.16882.i = phi i32 [ %.06791.i, %.preheader.i ], [ %.269.i, %87 ]
  %74 = load i8, ptr %.185.i, align 1, !tbaa !31
  %.not78.i = icmp eq i8 %74, 0
  br i1 %.not78.i, label %75, label %87

75:                                               ; preds = %73
  %76 = load ptr, ptr %52, align 8, !tbaa !36
  %77 = sub nuw nsw i64 %indvars.iv.i, %50
  %78 = getelementptr inbounds nuw ptr, ptr %76, i64 %77
  %79 = load ptr, ptr %78, align 8, !tbaa !38
  %80 = getelementptr inbounds nuw i32, ptr %79, i64 %72
  %81 = load i32, ptr %80, align 4, !tbaa !25
  %.not79.i = icmp eq i32 %81, 0
  br i1 %.not79.i, label %87, label %82

82:                                               ; preds = %75
  %83 = load i8, ptr %.16484.i, align 1, !tbaa !31
  %84 = zext i8 %83 to i32
  %85 = add i32 %.16882.i, %84
  %86 = add i32 %.16683.i, 1
  br label %87

87:                                               ; preds = %82, %75, %73
  %.269.i = phi i32 [ %.16882.i, %73 ], [ %85, %82 ], [ %.16882.i, %75 ]
  %.2.i = phi i32 [ %.16683.i, %73 ], [ %86, %82 ], [ %.16683.i, %75 ]
  %88 = getelementptr inbounds nuw i8, ptr %.16484.i, i64 1
  %89 = getelementptr inbounds nuw i8, ptr %.185.i, i64 1
  %indvars.iv.next.i = add nuw nsw i64 %indvars.iv.i, 1
  %exitcond.not.i = icmp eq i64 %indvars.iv.next.i, %wide.trip.count.i
  br i1 %exitcond.not.i, label %._crit_edge.i, label %73, !llvm.loop !74

._crit_edge.i:                                    ; preds = %87
  %scevgep.i = getelementptr i8, ptr %.06393.i, i64 %69
  %scevgep101.i = getelementptr i8, ptr %.094.i, i64 %69
  %90 = getelementptr inbounds i8, ptr %scevgep.i, i64 %56
  %91 = getelementptr inbounds i8, ptr %scevgep101.i, i64 %58
  %indvars.iv.next104.i = add nuw nsw i64 %indvars.iv103.i, 1
  %.not.not.i = icmp samesign ult i64 %indvars.iv103.i, %71
  br i1 %.not.not.i, label %.preheader.i, label %._crit_edge95.i, !llvm.loop !75

._crit_edge95.i:                                  ; preds = %._crit_edge.i
  %92 = icmp eq i32 %.2.i, 0
  br i1 %92, label %.sink.split, label %93

93:                                               ; preds = %._crit_edge95.i
  %94 = lshr i32 %.2.i, 1
  %95 = add i32 %94, %.269.i
  %96 = udiv i32 %95, %.2.i
  %97 = trunc i32 %96 to i8
  br label %.sink.split

98:                                               ; preds = %38
  br i1 %.not, label %99, label %103

99:                                               ; preds = %98
  %100 = getelementptr inbounds i8, ptr %31, i64 %indvars.iv
  %101 = load i8, ptr %100, align 1, !tbaa !31
  br label %.sink.split

.sink.split:                                      ; preds = %93, %._crit_edge95.i, %.preheader.lr.ph.i, %40, %99
  %.sink = phi i8 [ %101, %99 ], [ %97, %93 ], [ -1, %._crit_edge95.i ], [ -1, %40 ], [ -1, %.preheader.lr.ph.i ]
  %102 = getelementptr inbounds i8, ptr %33, i64 %indvars.iv
  store i8 %.sink, ptr %102, align 1, !tbaa !31
  br label %103

103:                                              ; preds = %.sink.split, %98
  %indvars.iv.next = add nsw i64 %indvars.iv, 1
  %104 = load i32, ptr %18, align 4, !tbaa !73
  %105 = sext i32 %104 to i64
  %.not42.not = icmp slt i64 %indvars.iv, %105
  br i1 %.not42.not, label %38, label %._crit_edge.loopexit, !llvm.loop !76

._crit_edge.loopexit:                             ; preds = %103
  %.pre = load i32, ptr %16, align 4, !tbaa !71
  br label %._crit_edge

._crit_edge:                                      ; preds = %._crit_edge.loopexit, %.lr.ph49.split
  %106 = phi i32 [ %.pre, %._crit_edge.loopexit ], [ %28, %.lr.ph49.split ]
  %107 = phi i32 [ %104, %._crit_edge.loopexit ], [ %29, %.lr.ph49.split ]
  %indvars.iv.next54 = add nsw i64 %indvars.iv53, 1
  %108 = sext i32 %106 to i64
  %.not41.not = icmp slt i64 %indvars.iv53, %108
  br i1 %.not41.not, label %.lr.ph49.split, label %._crit_edge50, !llvm.loop !77

._crit_edge50:                                    ; preds = %._crit_edge, %.lr.ph49, %13
  ret void
}